; Function Attrs: mustprogress nounwind uwtable
define hidden noundef i32 @_ZNK13StackMapFrame16is_assignable_toEP16VerificationTypeS1_iP10JavaThread(ptr nocapture noundef nonnull readonly align 8 dereferenceable(48) %0, ptr noundef %1, ptr noundef %2, i32 noundef %3, ptr noundef %4) local_unnamed_addr #0 align 2 {
  %6 = icmp sgt i32 %3, 0
  br i1 %6, label %.lr.ph, label %._crit_edge

.lr.ph:                                           ; preds = %5
  %7 = getelementptr inbounds i8, ptr %0, i64 40
  %wide.trip.count = zext nneg i32 %3 to i64
  br label %8

8:                                                ; preds = %.lr.ph, %13
  %indvars.iv = phi i64 [ 0, %.lr.ph ], [ %indvars.iv.next, %13 ]
  %9 = getelementptr inbounds %class.VerificationType, ptr %2, i64 %indvars.iv
  %10 = getelementptr inbounds %class.VerificationType, ptr %1, i64 %indvars.iv
  %11 = load ptr, ptr %7, align 8
  %12 = tail call noundef zeroext i1 @_ZNK16VerificationType18is_assignable_fromERKS_P13ClassVerifierbP10JavaThread(ptr noundef nonnull align 8 dereferenceable(8) %9, ptr noundef nonnull align 8 dereferenceable(8) %10, ptr noundef %11, i1 noundef zeroext false, ptr noundef %4)
  br i1 %12, label %13, label %._crit_edge.loopexit.split.loop.exit

13:                                               ; preds = %8
  %indvars.iv.next = add nuw nsw i64 %indvars.iv, 1
  %exitcond.not = icmp eq i64 %indvars.iv.next, %wide.trip.count
  br i1 %exitcond.not, label %._crit_edge, label %8, !llvm.loop !14

._crit_edge.loopexit.split.loop.exit:             ; preds = %8
  %14 = trunc nuw nsw i64 %indvars.iv to i32
  br label %._crit_edge

._crit_edge:                                      ; preds = %13, %._crit_edge.loopexit.split.loop.exit, %5
  %.0.lcssa = phi i32 [ 0, %5 ], [ %14, %._crit_edge.loopexit.split.loop.exit ], [ %3, %13 ]
  ret i32 %.0.lcssa
}